target datalayout = "e-m:e-p270:32:32-p271:32:32-p272:64:64-i64:64-i128:128-f80:128-n8:16:32:64-S128"
target triple = "x86_64-pc-linux-gnu"

; Function Attrs: nounwind uwtable
define dso_local void @matrix_mul_matrix_bitextract(i32 noundef %0, ptr noundef %1, ptr noundef %2, ptr noundef %3) #0 {
  %5 = alloca i32, align 4
  %6 = alloca ptr, align 8
  %7 = alloca ptr, align 8
  %8 = alloca ptr, align 8
  %9 = alloca i32, align 4
  %10 = alloca i32, align 4
  %11 = alloca i32, align 4
  %12 = alloca i32, align 4
  store i32 %0, ptr %5, align 4, !tbaa !16
  store ptr %1, ptr %6, align 8, !tbaa !18
  store ptr %2, ptr %7, align 8, !tbaa !20
  store ptr %3, ptr %8, align 8, !tbaa !20
  call void @llvm.lifetime.start.p0(i64 4, ptr %9) #3
  call void @llvm.lifetime.start.p0(i64 4, ptr %10) #3
  call void @llvm.lifetime.start.p0(i64 4, ptr %11) #3
  store i32 0, ptr %9, align 4, !tbaa !16
  br label %13

13:                                               ; preds = %82, %4
  %14 = load i32, ptr %9, align 4, !tbaa !16
  %15 = load i32, ptr %5, align 4, !tbaa !16
  %16 = icmp ult i32 %14, %15
  br i1 %16, label %17, label %85

17:                                               ; preds = %13
  store i32 0, ptr %10, align 4, !tbaa !16
  br label %18

18:                                               ; preds = %78, %17
  %19 = load i32, ptr %10, align 4, !tbaa !16
  %20 = load i32, ptr %5, align 4, !tbaa !16
  %21 = icmp ult i32 %19, %20
  br i1 %21, label %22, label %81

22:                                               ; preds = %18
  %23 = load ptr, ptr %6, align 8, !tbaa !18
  %24 = load i32, ptr %9, align 4, !tbaa !16
  %25 = load i32, ptr %5, align 4, !tbaa !16
  %26 = mul i32 %24, %25
  %27 = load i32, ptr %10, align 4, !tbaa !16
  %28 = add i32 %26, %27
  %29 = zext i32 %28 to i64
  %30 = getelementptr inbounds nuw i32, ptr %23, i64 %29
  store i32 0, ptr %30, align 4, !tbaa !16
  store i32 0, ptr %11, align 4, !tbaa !16
  br label %31

31:                                               ; preds = %74, %22
  %32 = load i32, ptr %11, align 4, !tbaa !16
  %33 = load i32, ptr %5, align 4, !tbaa !16
  %34 = icmp ult i32 %32, %33
  br i1 %34, label %35, label %77

35:                                               ; preds = %31
  call void @llvm.lifetime.start.p0(i64 4, ptr %12) #3
  %36 = load ptr, ptr %7, align 8, !tbaa !20
  %37 = load i32, ptr %9, align 4, !tbaa !16
  %38 = load i32, ptr %5, align 4, !tbaa !16
  %39 = mul i32 %37, %38
  %40 = load i32, ptr %11, align 4, !tbaa !16
  %41 = add i32 %39, %40
  %42 = zext i32 %41 to i64
  %43 = getelementptr inbounds nuw i16, ptr %36, i64 %42
  %44 = load i16, ptr %43, align 2, !tbaa !9
  %45 = sext i16 %44 to i32
  %46 = load ptr, ptr %8, align 8, !tbaa !20
  %47 = load i32, ptr %11, align 4, !tbaa !16
  %48 = load i32, ptr %5, align 4, !tbaa !16
  %49 = mul i32 %47, %48
  %50 = load i32, ptr %10, align 4, !tbaa !16
  %51 = add i32 %49, %50
  %52 = zext i32 %51 to i64
  %53 = getelementptr inbounds nuw i16, ptr %46, i64 %52
  %54 = load i16, ptr %53, align 2, !tbaa !9
  %55 = sext i16 %54 to i32
  %56 = mul nsw i32 %45, %55
  store i32 %56, ptr %12, align 4, !tbaa !16
  %57 = load i32, ptr %12, align 4, !tbaa !16
  %58 = ashr i32 %57, 2
  %59 = and i32 %58, 15
  %60 = load i32, ptr %12, align 4, !tbaa !16
  %61 = ashr i32 %60, 5
  %62 = and i32 %61, 127
  %63 = mul i32 %59, %62
  %64 = load ptr, ptr %6, align 8, !tbaa !18
  %65 = load i32, ptr %9, align 4, !tbaa !16
  %66 = load i32, ptr %5, align 4, !tbaa !16
  %67 = mul i32 %65, %66
  %68 = load i32, ptr %10, align 4, !tbaa !16
  %69 = add i32 %67, %68
  %70 = zext i32 %69 to i64
  %71 = getelementptr inbounds nuw i32, ptr %64, i64 %70
  %72 = load i32, ptr %71, align 4, !tbaa !16
  %73 = add i32 %72, %63
  store i32 %73, ptr %71, align 4, !tbaa !16
  call void @llvm.lifetime.end.p0(i64 4, ptr %12) #3
  br label %74

74:                                               ; preds = %35
  %75 = load i32, ptr %11, align 4, !tbaa !16
  %76 = add i32 %75, 1
  store i32 %76, ptr %11, align 4, !tbaa !16
  br label %31, !llvm.loop !34

77:                                               ; preds = %31
  br label %78

78:                                               ; preds = %77
  %79 = load i32, ptr %10, align 4, !tbaa !16
  %80 = add i32 %79, 1
  store i32 %80, ptr %10, align 4, !tbaa !16
  br label %18, !llvm.loop !35

81:                                               ; preds = %18
  br label %82

82:                                               ; preds = %81
  %83 = load i32, ptr %9, align 4, !tbaa !16
  %84 = add i32 %83, 1
  store i32 %84, ptr %9, align 4, !tbaa !16
  br label %13, !llvm.loop !36

85:                                               ; preds = %13
  call void @llvm.lifetime.end.p0(i64 4, ptr %11) #3
  call void @llvm.lifetime.end.p0(i64 4, ptr %10) #3
  call void @llvm.lifetime.end.p0(i64 4, ptr %9) #3
  ret void
}